target datalayout = "e-m:e-p270:32:32-p271:32:32-p272:64:64-i64:64-i128:128-f80:128-n8:16:32:64-S128"
target triple = "x86_64-pc-linux-gnu"

; Function Attrs: nounwind uwtable
define internal void @nsvg__xformIdentity(ptr noundef %0) #0 {
  %2 = alloca ptr, align 8
  store ptr %0, ptr %2, align 8, !tbaa !77
  %3 = load ptr, ptr %2, align 8, !tbaa !77
  %4 = getelementptr inbounds float, ptr %3, i64 0
  store float 1.000000e+00, ptr %4, align 4, !tbaa !23
  %5 = load ptr, ptr %2, align 8, !tbaa !77
  %6 = getelementptr inbounds float, ptr %5, i64 1
  store float 0.000000e+00, ptr %6, align 4, !tbaa !23
  %7 = load ptr, ptr %2, align 8, !tbaa !77
  %8 = getelementptr inbounds float, ptr %7, i64 2
  store float 0.000000e+00, ptr %8, align 4, !tbaa !23
  %9 = load ptr, ptr %2, align 8, !tbaa !77
  %10 = getelementptr inbounds float, ptr %9, i64 3
  store float 1.000000e+00, ptr %10, align 4, !tbaa !23
  %11 = load ptr, ptr %2, align 8, !tbaa !77
  %12 = getelementptr inbounds float, ptr %11, i64 4
  store float 0.000000e+00, ptr %12, align 4, !tbaa !23
  %13 = load ptr, ptr %2, align 8, !tbaa !77
  %14 = getelementptr inbounds float, ptr %13, i64 5
  store float 0.000000e+00, ptr %14, align 4, !tbaa !23
  ret void
}

; Function Attrs: nounwind uwtable
define internal void @nsvg__xformInverse(ptr noundef %0, ptr noundef %1) #0 {
  %3 = alloca ptr, align 8
  %4 = alloca ptr, align 8
  %5 = alloca double, align 8
  %6 = alloca double, align 8
  %7 = alloca i32, align 4
  store ptr %0, ptr %3, align 8, !tbaa !77
  store ptr %1, ptr %4, align 8, !tbaa !77
  call void @llvm.lifetime.start.p0(i64 8, ptr %5) #11
  call void @llvm.lifetime.start.p0(i64 8, ptr %6) #11
  %8 = load ptr, ptr %4, align 8, !tbaa !77
  %9 = getelementptr inbounds float, ptr %8, i64 0
  %10 = load float, ptr %9, align 4, !tbaa !23
  %11 = fpext float %10 to double
  %12 = load ptr, ptr %4, align 8, !tbaa !77
  %13 = getelementptr inbounds float, ptr %12, i64 3
  %14 = load float, ptr %13, align 4, !tbaa !23
  %15 = fpext float %14 to double
  %16 = load ptr, ptr %4, align 8, !tbaa !77
  %17 = getelementptr inbounds float, ptr %16, i64 2
  %18 = load float, ptr %17, align 4, !tbaa !23
  %19 = fpext float %18 to double
  %20 = load ptr, ptr %4, align 8, !tbaa !77
  %21 = getelementptr inbounds float, ptr %20, i64 1
  %22 = load float, ptr %21, align 4, !tbaa !23
  %23 = fpext float %22 to double
  %24 = fmul double %19, %23
  %25 = fneg double %24
  %26 = call double @llvm.fmuladd.f64(double %11, double %15, double %25)
  store double %26, ptr %6, align 8, !tbaa !260
  %27 = load double, ptr %6, align 8, !tbaa !260
  %28 = fcmp ogt double %27, 0xBEB0C6F7A0B5ED8D
  br i1 %28, label %29, label %34

29:                                               ; preds = %2
  %30 = load double, ptr %6, align 8, !tbaa !260
  %31 = fcmp olt double %30, 0x3EB0C6F7A0B5ED8D
  br i1 %31, label %32, label %34

32:                                               ; preds = %29
  %33 = load ptr, ptr %4, align 8, !tbaa !77
  call void @nsvg__xformIdentity(ptr noundef %33)
  store i32 1, ptr %7, align 4
  br label %123

34:                                               ; preds = %29, %2
  %35 = load double, ptr %6, align 8, !tbaa !260
  %36 = fdiv double 1.000000e+00, %35
  store double %36, ptr %5, align 8, !tbaa !260
  %37 = load ptr, ptr %4, align 8, !tbaa !77
  %38 = getelementptr inbounds float, ptr %37, i64 3
  %39 = load float, ptr %38, align 4, !tbaa !23
  %40 = fpext float %39 to double
  %41 = load double, ptr %5, align 8, !tbaa !260
  %42 = fmul double %40, %41
  %43 = fptrunc double %42 to float
  %44 = load ptr, ptr %3, align 8, !tbaa !77
  %45 = getelementptr inbounds float, ptr %44, i64 0
  store float %43, ptr %45, align 4, !tbaa !23
  %46 = load ptr, ptr %4, align 8, !tbaa !77
  %47 = getelementptr inbounds float, ptr %46, i64 2
  %48 = load float, ptr %47, align 4, !tbaa !23
  %49 = fneg float %48
  %50 = fpext float %49 to double
  %51 = load double, ptr %5, align 8, !tbaa !260
  %52 = fmul double %50, %51
  %53 = fptrunc double %52 to float
  %54 = load ptr, ptr %3, align 8, !tbaa !77
  %55 = getelementptr inbounds float, ptr %54, i64 2
  store float %53, ptr %55, align 4, !tbaa !23
  %56 = load ptr, ptr %4, align 8, !tbaa !77
  %57 = getelementptr inbounds float, ptr %56, i64 2
  %58 = load float, ptr %57, align 4, !tbaa !23
  %59 = fpext float %58 to double
  %60 = load ptr, ptr %4, align 8, !tbaa !77
  %61 = getelementptr inbounds float, ptr %60, i64 5
  %62 = load float, ptr %61, align 4, !tbaa !23
  %63 = fpext float %62 to double
  %64 = load ptr, ptr %4, align 8, !tbaa !77
  %65 = getelementptr inbounds float, ptr %64, i64 3
  %66 = load float, ptr %65, align 4, !tbaa !23
  %67 = fpext float %66 to double
  %68 = load ptr, ptr %4, align 8, !tbaa !77
  %69 = getelementptr inbounds float, ptr %68, i64 4
  %70 = load float, ptr %69, align 4, !tbaa !23
  %71 = fpext float %70 to double
  %72 = fmul double %67, %71
  %73 = fneg double %72
  %74 = call double @llvm.fmuladd.f64(double %59, double %63, double %73)
  %75 = load double, ptr %5, align 8, !tbaa !260
  %76 = fmul double %74, %75
  %77 = fptrunc double %76 to float
  %78 = load ptr, ptr %3, align 8, !tbaa !77
  %79 = getelementptr inbounds float, ptr %78, i64 4
  store float %77, ptr %79, align 4, !tbaa !23
  %80 = load ptr, ptr %4, align 8, !tbaa !77
  %81 = getelementptr inbounds float, ptr %80, i64 1
  %82 = load float, ptr %81, align 4, !tbaa !23
  %83 = fneg float %82
  %84 = fpext float %83 to double
  %85 = load double, ptr %5, align 8, !tbaa !260
  %86 = fmul double %84, %85
  %87 = fptrunc double %86 to float
  %88 = load ptr, ptr %3, align 8, !tbaa !77
  %89 = getelementptr inbounds float, ptr %88, i64 1
  store float %87, ptr %89, align 4, !tbaa !23
  %90 = load ptr, ptr %4, align 8, !tbaa !77
  %91 = getelementptr inbounds float, ptr %90, i64 0
  %92 = load float, ptr %91, align 4, !tbaa !23
  %93 = fpext float %92 to double
  %94 = load double, ptr %5, align 8, !tbaa !260
  %95 = fmul double %93, %94
  %96 = fptrunc double %95 to float
  %97 = load ptr, ptr %3, align 8, !tbaa !77
  %98 = getelementptr inbounds float, ptr %97, i64 3
  store float %96, ptr %98, align 4, !tbaa !23
  %99 = load ptr, ptr %4, align 8, !tbaa !77
  %100 = getelementptr inbounds float, ptr %99, i64 1
  %101 = load float, ptr %100, align 4, !tbaa !23
  %102 = fpext float %101 to double
  %103 = load ptr, ptr %4, align 8, !tbaa !77
  %104 = getelementptr inbounds float, ptr %103, i64 4
  %105 = load float, ptr %104, align 4, !tbaa !23
  %106 = fpext float %105 to double
  %107 = load ptr, ptr %4, align 8, !tbaa !77
  %108 = getelementptr inbounds float, ptr %107, i64 0
  %109 = load float, ptr %108, align 4, !tbaa !23
  %110 = fpext float %109 to double
  %111 = load ptr, ptr %4, align 8, !tbaa !77
  %112 = getelementptr inbounds float, ptr %111, i64 5
  %113 = load float, ptr %112, align 4, !tbaa !23
  %114 = fpext float %113 to double
  %115 = fmul double %110, %114
  %116 = fneg double %115
  %117 = call double @llvm.fmuladd.f64(double %102, double %106, double %116)
  %118 = load double, ptr %5, align 8, !tbaa !260
  %119 = fmul double %117, %118
  %120 = fptrunc double %119 to float
  %121 = load ptr, ptr %3, align 8, !tbaa !77
  %122 = getelementptr inbounds float, ptr %121, i64 5
  store float %120, ptr %122, align 4, !tbaa !23
  store i32 0, ptr %7, align 4
  br label %123

123:                                              ; preds = %34, %32
  call void @llvm.lifetime.end.p0(i64 8, ptr %6) #11
  call void @llvm.lifetime.end.p0(i64 8, ptr %5) #11
  %124 = load i32, ptr %7, align 4
  switch i32 %124, label %126 [
    i32 0, label %125
    i32 1, label %125
  ]

125:                                              ; preds = %123, %123
  ret void

126:                                              ; preds = %123
  unreachable
}