; Function Attrs: mustprogress nofree norecurse nosync nounwind willreturn memory(write, argmem: readwrite, inaccessiblemem: none) uwtable
define internal fastcc void @nsvg__xformInverse(ptr noundef writeonly captures(none) %0, ptr noundef nonnull captures(none) %1) unnamed_addr #26 {
  %3 = load float, ptr %1, align 4, !tbaa !28
  %4 = fpext float %3 to double
  %5 = getelementptr inbounds nuw i8, ptr %1, i64 12
  %6 = load float, ptr %5, align 4, !tbaa !28
  %7 = fpext float %6 to double
  %8 = getelementptr inbounds nuw i8, ptr %1, i64 8
  %9 = load float, ptr %8, align 4, !tbaa !28
  %10 = fpext float %9 to double
  %11 = getelementptr inbounds nuw i8, ptr %1, i64 4
  %12 = load float, ptr %11, align 4, !tbaa !28
  %13 = fpext float %12 to double
  %14 = fneg double %13
  %15 = fmul double %10, %14
  %16 = tail call double @llvm.fmuladd.f64(double %4, double %7, double %15)
  %17 = tail call double @llvm.fabs.f64(double %16)
  %or.cond = fcmp olt double %17, 0x3EB0C6F7A0B5ED8D
  br i1 %or.cond, label %18, label %20

18:                                               ; preds = %2
  store float 1.000000e+00, ptr %1, align 4, !tbaa !28
  store float 0.000000e+00, ptr %11, align 4, !tbaa !28
  store float 0.000000e+00, ptr %8, align 4, !tbaa !28
  store float 1.000000e+00, ptr %5, align 4, !tbaa !28
  %19 = getelementptr inbounds nuw i8, ptr %1, i64 16
  store float 0.000000e+00, ptr %19, align 4, !tbaa !28
  br label %70

20:                                               ; preds = %2
  %21 = fdiv double 1.000000e+00, %16
  %22 = fmul double %21, %7
  %23 = fptrunc double %22 to float
  store float %23, ptr %0, align 4, !tbaa !28
  %24 = load float, ptr %8, align 4, !tbaa !28
  %25 = fneg float %24
  %26 = fpext float %25 to double
  %27 = fmul double %21, %26
  %28 = fptrunc double %27 to float
  %29 = getelementptr inbounds nuw i8, ptr %0, i64 8
  store float %28, ptr %29, align 4, !tbaa !28
  %30 = load float, ptr %8, align 4, !tbaa !28
  %31 = fpext float %30 to double
  %32 = getelementptr inbounds nuw i8, ptr %1, i64 20
  %33 = load float, ptr %32, align 4, !tbaa !28
  %34 = fpext float %33 to double
  %35 = load float, ptr %5, align 4, !tbaa !28
  %36 = fpext float %35 to double
  %37 = getelementptr inbounds nuw i8, ptr %1, i64 16
  %38 = load float, ptr %37, align 4, !tbaa !28
  %39 = fpext float %38 to double
  %40 = fneg double %39
  %41 = fmul double %36, %40
  %42 = tail call double @llvm.fmuladd.f64(double %31, double %34, double %41)
  %43 = fmul double %21, %42
  %44 = fptrunc double %43 to float
  %45 = getelementptr inbounds nuw i8, ptr %0, i64 16
  store float %44, ptr %45, align 4, !tbaa !28
  %46 = load float, ptr %11, align 4, !tbaa !28
  %47 = fneg float %46
  %48 = fpext float %47 to double
  %49 = fmul double %21, %48
  %50 = fptrunc double %49 to float
  %51 = getelementptr inbounds nuw i8, ptr %0, i64 4
  store float %50, ptr %51, align 4, !tbaa !28
  %52 = load float, ptr %1, align 4, !tbaa !28
  %53 = fpext float %52 to double
  %54 = fmul double %21, %53
  %55 = fptrunc double %54 to float
  %56 = getelementptr inbounds nuw i8, ptr %0, i64 12
  store float %55, ptr %56, align 4, !tbaa !28
  %57 = load float, ptr %11, align 4, !tbaa !28
  %58 = fpext float %57 to double
  %59 = load float, ptr %37, align 4, !tbaa !28
  %60 = fpext float %59 to double
  %61 = load float, ptr %1, align 4, !tbaa !28
  %62 = fpext float %61 to double
  %63 = load float, ptr %32, align 4, !tbaa !28
  %64 = fpext float %63 to double
  %65 = fneg double %64
  %66 = fmul double %62, %65
  %67 = tail call double @llvm.fmuladd.f64(double %58, double %60, double %66)
  %68 = fmul double %21, %67
  %69 = fptrunc double %68 to float
  br label %70

70:                                               ; preds = %20, %18
  %.sink34 = phi ptr [ %0, %20 ], [ %1, %18 ]
  %.sink = phi float [ %69, %20 ], [ 0.000000e+00, %18 ]
  %71 = getelementptr inbounds nuw i8, ptr %.sink34, i64 20
  store float %.sink, ptr %71, align 4, !tbaa !28
  ret void
}